target datalayout = "e-m:e-p270:32:32-p271:32:32-p272:64:64-i64:64-i128:128-f80:128-n8:16:32:64-S128"
target triple = "x86_64-pc-linux-gnu"

%struct._zend_refcounted_h = type { i32, %union.anon }
%union.anon = type { i32 }
%struct._zval_struct = type { %union._zend_value, %union.anon.0, %union.anon.3 }
%union._zend_value = type { i64 }
%union.anon.0 = type { i32 }
%union.anon.3 = type { i32 }
%struct._zend_generator = type { %struct._zend_object, ptr, ptr, %struct._zval_struct, %struct._zval_struct, %struct._zval_struct, ptr, i64, %struct._zval_struct, %struct._zend_generator_node, %struct._zend_execute_data, ptr, i8 }
%struct._zend_object = type { %struct._zend_refcounted_h, i32, i32, ptr, ptr, ptr, [1 x %struct._zval_struct] }
%struct._zend_generator_node = type { ptr, i32, %union.anon.4, %union.anon.5 }
%union.anon.4 = type { ptr }
%union.anon.5 = type { ptr }
%struct._zend_execute_data = type { ptr, ptr, ptr, ptr, %struct._zval_struct, ptr, ptr, ptr, ptr }

; Function Attrs: nounwind uwtable
define internal ptr @zend_generator_create(ptr noundef %0) #0 {
  %2 = alloca ptr, align 8
  %3 = alloca ptr, align 8
  store ptr %0, ptr %2, align 8, !tbaa !80
  call void @llvm.lifetime.start.p0(i64 8, ptr %3) #11
  %4 = call noalias ptr @_emalloc_320()
  store ptr %4, ptr %3, align 8, !tbaa !4
  %5 = load ptr, ptr %3, align 8, !tbaa !4
  call void @llvm.memset.p0.i64(ptr align 8 %5, i8 0, i64 280, i1 false)
  %6 = load ptr, ptr %3, align 8, !tbaa !4
  %7 = getelementptr inbounds nuw %struct._zend_generator, ptr %6, i32 0, i32 7
  store i64 -1, ptr %7, align 8, !tbaa !161
  br label %8

8:                                                ; preds = %1
  %9 = load ptr, ptr %3, align 8, !tbaa !4
  %10 = getelementptr inbounds nuw %struct._zend_generator, ptr %9, i32 0, i32 5
  %11 = getelementptr inbounds nuw %struct._zval_struct, ptr %10, i32 0, i32 1
  store i32 0, ptr %11, align 8, !tbaa !26
  br label %12

12:                                               ; preds = %8
  br label %13

13:                                               ; preds = %12
  br label %14

14:                                               ; preds = %13
  %15 = load ptr, ptr %3, align 8, !tbaa !4
  %16 = getelementptr inbounds nuw %struct._zend_generator, ptr %15, i32 0, i32 8
  %17 = getelementptr inbounds nuw %struct._zval_struct, ptr %16, i32 0, i32 1
  store i32 0, ptr %17, align 8, !tbaa !26
  br label %18

18:                                               ; preds = %14
  br label %19

19:                                               ; preds = %18
  %20 = load ptr, ptr %3, align 8, !tbaa !4
  %21 = getelementptr inbounds nuw %struct._zend_generator, ptr %20, i32 0, i32 9
  %22 = getelementptr inbounds nuw %struct._zend_generator_node, ptr %21, i32 0, i32 0
  store ptr null, ptr %22, align 8, !tbaa !73
  %23 = load ptr, ptr %3, align 8, !tbaa !4
  %24 = getelementptr inbounds nuw %struct._zend_generator, ptr %23, i32 0, i32 9
  %25 = getelementptr inbounds nuw %struct._zend_generator_node, ptr %24, i32 0, i32 1
  store i32 0, ptr %25, align 8, !tbaa !109
  %26 = load ptr, ptr %3, align 8, !tbaa !4
  %27 = getelementptr inbounds nuw %struct._zend_generator, ptr %26, i32 0, i32 9
  %28 = getelementptr inbounds nuw %struct._zend_generator_node, ptr %27, i32 0, i32 3
  store ptr null, ptr %28, align 8, !tbaa !26
  %29 = load ptr, ptr %3, align 8, !tbaa !4
  %30 = getelementptr inbounds nuw %struct._zend_generator, ptr %29, i32 0, i32 0
  %31 = load ptr, ptr %2, align 8, !tbaa !80
  call void @zend_object_std_init(ptr noundef %30, ptr noundef %31)
  %32 = load ptr, ptr %3, align 8, !tbaa !4
  call void @llvm.lifetime.end.p0(i64 8, ptr %3) #11
  ret ptr %32
}