; Function Attrs: nounwind uwtable
define internal noundef ptr @zend_generator_create(ptr noundef %0) #0 {
  %2 = tail call noalias ptr @_emalloc_320() #11
  tail call void @llvm.memset.p0.i64(ptr noundef nonnull align 8 dereferenceable(280) %2, i8 0, i64 280, i1 false)
  %3 = getelementptr inbounds nuw i8, ptr %2, i64 128
  store i64 -1, ptr %3, align 8, !tbaa !153
  %4 = getelementptr inbounds nuw i8, ptr %2, i64 144
  store i32 0, ptr %4, align 8, !tbaa !24
  %5 = getelementptr inbounds nuw i8, ptr %2, i64 160
  store i32 0, ptr %5, align 8, !tbaa !100
  tail call void @zend_object_std_init(ptr noundef nonnull %2, ptr noundef %0) #11
  ret ptr %2
}